; Function Attrs: mustprogress nofree norecurse nosync nounwind willreturn memory(argmem: read) uwtable
define hidden noundef zeroext i1 @_ZN22ShenandoahBarrierSetC225is_shenandoah_wb_pre_callEP4Node(ptr nocapture noundef readonly %0) local_unnamed_addr #4 align 2 {
  %2 = getelementptr inbounds i8, ptr %0, i64 44
  %3 = load i32, ptr %2, align 4
  %4 = and i32 %3, 63
  %5 = icmp eq i32 %4, 55
  br i1 %5, label %6, label %10

6:                                                ; preds = %1
  %7 = getelementptr inbounds i8, ptr %0, i64 96
  %8 = load ptr, ptr %7, align 8
  %9 = icmp eq ptr %8, @_ZN17ShenandoahRuntime25write_ref_field_pre_entryEP7oopDescP10JavaThread
  br label %10

10:                                               ; preds = %6, %1
  %11 = phi i1 [ false, %1 ], [ %9, %6 ]
  ret i1 %11
}